target datalayout = "e-m:e-p270:32:32-p271:32:32-p272:64:64-i64:64-i128:128-f80:128-n8:16:32:64-S128"
target triple = "x86_64-pc-linux-gnu"

%"class.gmx::AbstractOptionStorage.base" = type <{ ptr, %"class.std::__cxx11::basic_string", %"class.std::__cxx11::basic_string", %"class.gmx::FlagsTemplate", ptr, i32, i32, i8, i8 }>
%"class.gmx::FlagsTemplate" = type { i64 }
%"class.gmx::OptionInfo" = type { ptr, ptr }
%"class.std::__cxx11::basic_string" = type { %"struct.std::__cxx11::basic_string<char>::_Alloc_hider", i64, %union.anon }
%"struct.std::__cxx11::basic_string<char>::_Alloc_hider" = type { ptr }
%union.anon = type { i64, [8 x i8] }
%"class.gmx::SelectionFileOptionStorage" = type <{ %"class.gmx::AbstractOptionStorage.base", [6 x i8], %"class.gmx::SelectionFileOptionInfo", ptr, i8, [7 x i8] }>
%"class.gmx::SelectionFileOptionInfo" = type { %"class.gmx::OptionInfo" }
%class.anon.88 = type { i8 }

@.str.12 = private unnamed_addr constant [19 x i8] c"manager != nullptr\00", align 1
@.str.14 = private unnamed_addr constant [135 x i8] c"generated/home/dtcxzyw/WorkSpace/Projects/compilers/llvm-opt-benchmark/bench/gromacs/gromacs/src/gromacs/selection/selectionoption.cpp\00", align 1
@.str.31 = private unnamed_addr constant [64 x i8] c"SelectionOptionManager must be added before SelectionFileOption\00", align 1
@_ZN3gmx23SelectionFileOptionInfoC1EPNS_26SelectionFileOptionStorageE = unnamed_addr alias void (ptr, ptr), ptr @_ZN3gmx23SelectionFileOptionInfoC2EPNS_26SelectionFileOptionStorageE

; Function Attrs: mustprogress nounwind uwtable
define linkonce_odr void @_ZN3gmx13FlagsTemplateINS_10OptionFlagEEC2Em(ptr noundef nonnull align 8 dereferenceable(8) %0, i64 noundef %1) unnamed_addr #2 comdat align 2 {
  %3 = alloca ptr, align 8
  %4 = alloca i64, align 8
  store ptr %0, ptr %3, align 8, !tbaa !82
  store i64 %1, ptr %4, align 8, !tbaa !81
  %5 = load ptr, ptr %3, align 8
  %6 = getelementptr inbounds nuw %"class.gmx::FlagsTemplate", ptr %5, i32 0, i32 0
  %7 = load i64, ptr %4, align 8, !tbaa !81
  store i64 %7, ptr %6, align 8, !tbaa !84
  ret void
}

; Function Attrs: inlinehint mustprogress uwtable
define internal void @"_ZZN3gmx26SelectionFileOptionStorageC1ERKNS_19SelectionFileOptionEPNS_22SelectionOptionManagerEENK3$_0clEv"(ptr noundef nonnull align 1 dereferenceable(1) %0) #5 align 2 {
  %2 = alloca ptr, align 8
  store ptr %0, ptr %2, align 8, !tbaa !103
  call void @_ZN3gmx8internal13assertHandlerEPKcS2_S2_S2_i(ptr noundef @.str.12, ptr noundef @.str.31, ptr noundef @"__PRETTY_FUNCTION__._ZZN3gmx26SelectionFileOptionStorageC1ERKNS_19SelectionFileOptionEPNS_22SelectionOptionManagerEENK3$_0clEv", ptr noundef @.str.14, i32 noundef 283) #23
  unreachable
}

; Function Attrs: mustprogress uwtable
define linkonce_odr i64 @_ZNK3gmx13FlagsTemplateINS_10OptionFlagEEorERKS2_(ptr noundef nonnull align 8 dereferenceable(8) %0, ptr noundef nonnull align 8 dereferenceable(8) %1) #1 comdat align 2 {
  %3 = alloca %"class.gmx::FlagsTemplate", align 8
  %4 = alloca ptr, align 8
  %5 = alloca ptr, align 8
  store ptr %0, ptr %4, align 8, !tbaa !82
  store ptr %1, ptr %5, align 8, !tbaa !82
  %6 = load ptr, ptr %4, align 8
  %7 = getelementptr inbounds nuw %"class.gmx::FlagsTemplate", ptr %6, i32 0, i32 0
  %8 = load i64, ptr %7, align 8, !tbaa !84
  %9 = load ptr, ptr %5, align 8, !tbaa !82
  %10 = getelementptr inbounds nuw %"class.gmx::FlagsTemplate", ptr %9, i32 0, i32 0
  %11 = load i64, ptr %10, align 8, !tbaa !84
  %12 = or i64 %8, %11
  call void @_ZN3gmx13FlagsTemplateINS_10OptionFlagEEC2Em(ptr noundef nonnull align 8 dereferenceable(8) %3, i64 noundef %12)
  %13 = getelementptr inbounds nuw %"class.gmx::FlagsTemplate", ptr %3, i32 0, i32 0
  %14 = load i64, ptr %13, align 8
  ret i64 %14
}

; Function Attrs: mustprogress nounwind uwtable
define linkonce_odr void @_ZN3gmx13FlagsTemplateINS_10OptionFlagEEC2ES1_(ptr noundef nonnull align 8 dereferenceable(8) %0, i64 noundef %1) unnamed_addr #2 comdat align 2 {
  %3 = alloca ptr, align 8
  %4 = alloca i64, align 8
  store ptr %0, ptr %3, align 8, !tbaa !82
  store i64 %1, ptr %4, align 8, !tbaa !85
  %5 = load ptr, ptr %3, align 8
  %6 = getelementptr inbounds nuw %"class.gmx::FlagsTemplate", ptr %5, i32 0, i32 0
  %7 = load i64, ptr %4, align 8, !tbaa !85
  store i64 %7, ptr %6, align 8, !tbaa !84
  ret void
}

; Function Attrs: mustprogress nounwind uwtable
define linkonce_odr void @_ZN3gmx13FlagsTemplateINS_10OptionFlagEEC2Ev(ptr noundef nonnull align 8 dereferenceable(8) %0) unnamed_addr #2 comdat align 2 {
  %2 = alloca ptr, align 8
  store ptr %0, ptr %2, align 8, !tbaa !82
  %3 = load ptr, ptr %2, align 8
  %4 = getelementptr inbounds nuw %"class.gmx::FlagsTemplate", ptr %3, i32 0, i32 0
  store i64 0, ptr %4, align 8, !tbaa !84
  ret void
}

; Function Attrs: mustprogress uwtable
define void @_ZN3gmx26SelectionFileOptionStorageC2ERKNS_19SelectionFileOptionEPNS_22SelectionOptionManagerE(ptr noundef nonnull align 8 dereferenceable(129) %0, ptr noundef nonnull align 8 dereferenceable(48) %1, ptr noundef %2) unnamed_addr #1 align 2 personality ptr @__gxx_personality_v0 {
  %4 = alloca ptr, align 8
  %5 = alloca ptr, align 8
  %6 = alloca ptr, align 8
  %7 = alloca %"class.gmx::FlagsTemplate", align 8
  %8 = alloca %"class.gmx::FlagsTemplate", align 8
  %9 = alloca %"class.gmx::FlagsTemplate", align 8
  %10 = alloca %"class.gmx::FlagsTemplate", align 8
  %11 = alloca %"class.gmx::FlagsTemplate", align 8
  %12 = alloca ptr, align 8
  %13 = alloca i32, align 4
  %14 = alloca %class.anon.88, align 1
  store ptr %0, ptr %4, align 8, !tbaa !62
  store ptr %1, ptr %5, align 8, !tbaa !72
  store ptr %2, ptr %6, align 8, !tbaa !74
  %15 = load ptr, ptr %4, align 8
  %16 = load ptr, ptr %5, align 8, !tbaa !72
  call void @llvm.lifetime.start.p0(i64 8, ptr %8) #20
  call void @llvm.lifetime.start.p0(i64 8, ptr %9) #20
  call void @_ZN3gmx13FlagsTemplateINS_10OptionFlagEEC2Ev(ptr noundef nonnull align 8 dereferenceable(8) %9)
  call void @llvm.lifetime.start.p0(i64 8, ptr %10) #20
  call void @_ZN3gmx13FlagsTemplateINS_10OptionFlagEEC2ES1_(ptr noundef nonnull align 8 dereferenceable(8) %10, i64 noundef 32)
  %17 = call i64 @_ZNK3gmx13FlagsTemplateINS_10OptionFlagEEorERKS2_(ptr noundef nonnull align 8 dereferenceable(8) %9, ptr noundef nonnull align 8 dereferenceable(8) %10)
  %18 = getelementptr inbounds nuw %"class.gmx::FlagsTemplate", ptr %8, i32 0, i32 0
  store i64 %17, ptr %18, align 8
  call void @llvm.lifetime.start.p0(i64 8, ptr %11) #20
  call void @_ZN3gmx13FlagsTemplateINS_10OptionFlagEEC2ES1_(ptr noundef nonnull align 8 dereferenceable(8) %11, i64 noundef 1024)
  %19 = call i64 @_ZNK3gmx13FlagsTemplateINS_10OptionFlagEEorERKS2_(ptr noundef nonnull align 8 dereferenceable(8) %8, ptr noundef nonnull align 8 dereferenceable(8) %11)
  %20 = getelementptr inbounds nuw %"class.gmx::FlagsTemplate", ptr %7, i32 0, i32 0
  store i64 %19, ptr %20, align 8
  %21 = getelementptr inbounds nuw %"class.gmx::FlagsTemplate", ptr %7, i32 0, i32 0
  %22 = load i64, ptr %21, align 8
  call void @_ZN3gmx21AbstractOptionStorageC2ERKNS_14AbstractOptionENS_13FlagsTemplateINS_10OptionFlagEEE(ptr noundef nonnull align 8 dereferenceable(98) %15, ptr noundef nonnull align 8 dereferenceable(48) %16, i64 %22)
  call void @llvm.lifetime.end.p0(i64 8, ptr %11) #20
  call void @llvm.lifetime.end.p0(i64 8, ptr %10) #20
  call void @llvm.lifetime.end.p0(i64 8, ptr %9) #20
  call void @llvm.lifetime.end.p0(i64 8, ptr %8) #20
  store ptr getelementptr inbounds inrange(-16, 104) ({ [15 x ptr] }, ptr @_ZTVN3gmx26SelectionFileOptionStorageE, i32 0, i32 0, i32 2), ptr %15, align 8, !tbaa !13
  %23 = getelementptr inbounds nuw %"class.gmx::SelectionFileOptionStorage", ptr %15, i32 0, i32 2
  invoke void @_ZN3gmx23SelectionFileOptionInfoC1EPNS_26SelectionFileOptionStorageE(ptr noundef nonnull align 8 dereferenceable(16) %23, ptr noundef %15)
          to label %24 unwind label %34

24:                                               ; preds = %3
  %25 = getelementptr inbounds nuw %"class.gmx::SelectionFileOptionStorage", ptr %15, i32 0, i32 3
  %26 = load ptr, ptr %6, align 8, !tbaa !74
  store ptr %26, ptr %25, align 8, !tbaa !74
  %27 = getelementptr inbounds nuw %"class.gmx::SelectionFileOptionStorage", ptr %15, i32 0, i32 4
  store i8 0, ptr %27, align 8, !tbaa !64
  %28 = load ptr, ptr %6, align 8, !tbaa !74
  %29 = icmp ne ptr %28, null
  call void @llvm.lifetime.start.p0(i64 1, ptr %14) #20
  br i1 %29, label %30, label %31

30:                                               ; preds = %24
  br label %33

31:                                               ; preds = %24
  invoke void @"_ZZN3gmx26SelectionFileOptionStorageC1ERKNS_19SelectionFileOptionEPNS_22SelectionOptionManagerEENK3$_0clEv"(ptr noundef nonnull align 1 dereferenceable(1) %14)
          to label %32 unwind label %38

32:                                               ; preds = %31
  br label %33

33:                                               ; preds = %32, %30
  call void @llvm.lifetime.end.p0(i64 1, ptr %14) #20
  ret void

34:                                               ; preds = %3
  %35 = landingpad { ptr, i32 }
          cleanup
  %36 = extractvalue { ptr, i32 } %35, 0
  store ptr %36, ptr %12, align 8
  %37 = extractvalue { ptr, i32 } %35, 1
  store i32 %37, ptr %13, align 4
  br label %42

38:                                               ; preds = %31
  %39 = landingpad { ptr, i32 }
          cleanup
  %40 = extractvalue { ptr, i32 } %39, 0
  store ptr %40, ptr %12, align 8
  %41 = extractvalue { ptr, i32 } %39, 1
  store i32 %41, ptr %13, align 4
  call void @llvm.lifetime.end.p0(i64 1, ptr %14) #20
  call void @_ZN3gmx10OptionInfoD2Ev(ptr noundef nonnull align 8 dereferenceable(16) %23) #20
  br label %42

42:                                               ; preds = %38, %34
  call void @_ZN3gmx21AbstractOptionStorageD2Ev(ptr noundef nonnull align 8 dereferenceable(98) %15) #20
  br label %43

43:                                               ; preds = %42
  %44 = load ptr, ptr %12, align 8
  %45 = load i32, ptr %13, align 4
  %46 = insertvalue { ptr, i32 } poison, ptr %44, 0
  %47 = insertvalue { ptr, i32 } %46, i32 %45, 1
  resume { ptr, i32 } %47
}