; Function Attrs: mustprogress uwtable
define void @_ZN3gmx26SelectionFileOptionStorageC2ERKNS_19SelectionFileOptionEPNS_22SelectionOptionManagerE(ptr noundef nonnull align 8 dereferenceable(129) %0, ptr noundef nonnull align 8 dereferenceable(48) %1, ptr noundef %2) unnamed_addr #1 align 2 personality ptr @__gxx_personality_v0 {
  tail call void @_ZN3gmx21AbstractOptionStorageC2ERKNS_14AbstractOptionENS_13FlagsTemplateINS_10OptionFlagEEE(ptr noundef nonnull align 8 dereferenceable(98) %0, ptr noundef nonnull align 8 dereferenceable(48) %1, i64 1056)
  store ptr getelementptr inbounds nuw inrange(-16, 104) (i8, ptr @_ZTVN3gmx26SelectionFileOptionStorageE, i64 16), ptr %0, align 8, !tbaa !12
  %4 = getelementptr inbounds nuw i8, ptr %0, i64 104
  invoke void @_ZN3gmx23SelectionFileOptionInfoC1EPNS_26SelectionFileOptionStorageE(ptr noundef nonnull align 8 dereferenceable(16) %4, ptr noundef nonnull %0)
          to label %5 unwind label %10

5:                                                ; preds = %3
  %6 = getelementptr inbounds nuw i8, ptr %0, i64 120
  store ptr %2, ptr %6, align 8, !tbaa !122
  %7 = getelementptr inbounds nuw i8, ptr %0, i64 128
  store i8 0, ptr %7, align 8, !tbaa !116
  %.not = icmp eq ptr %2, null
  br i1 %.not, label %8, label %9

8:                                                ; preds = %5
  invoke void @_ZN3gmx8internal13assertHandlerEPKcS2_S2_S2_i(ptr noundef nonnull @.str.12, ptr noundef nonnull @.str.31, ptr noundef nonnull @"__PRETTY_FUNCTION__._ZZN3gmx26SelectionFileOptionStorageC1ERKNS_19SelectionFileOptionEPNS_22SelectionOptionManagerEENK3$_0clEv", ptr noundef nonnull @.str.14, i32 noundef 283) #29
          to label %.noexc unwind label %12

.noexc:                                           ; preds = %8
  unreachable

9:                                                ; preds = %5
  ret void

10:                                               ; preds = %3
  %11 = landingpad { ptr, i32 }
          cleanup
  br label %14

12:                                               ; preds = %8
  %13 = landingpad { ptr, i32 }
          cleanup
  tail call void @_ZN3gmx10OptionInfoD2Ev(ptr noundef nonnull align 8 dereferenceable(16) %4) #28
  br label %14

14:                                               ; preds = %12, %10
  %.pn = phi { ptr, i32 } [ %13, %12 ], [ %11, %10 ]
  tail call void @_ZN3gmx21AbstractOptionStorageD2Ev(ptr noundef nonnull align 8 dereferenceable(98) %0) #28
  resume { ptr, i32 } %.pn
}